target datalayout = "e-m:e-p270:32:32-p271:32:32-p272:64:64-i64:64-i128:128-f80:128-n8:16:32:64-S128"
target triple = "x86_64-pc-linux-gnu"

; Function Attrs: nounwind uwtable
define internal zeroext i1 @obj_is_focusable(ptr noundef %0) #0 {
  %2 = alloca i1, align 1
  %3 = alloca ptr, align 8
  store ptr %0, ptr %3, align 8, !tbaa !3
  %4 = load ptr, ptr %3, align 8, !tbaa !3
  %5 = call zeroext i1 @lv_obj_has_flag(ptr noundef %4, i32 noundef 1)
  br i1 %5, label %6, label %7

6:                                                ; preds = %1
  store i1 false, ptr %2, align 1
  br label %12

7:                                                ; preds = %1
  %8 = load ptr, ptr %3, align 8, !tbaa !3
  %9 = call zeroext i1 @lv_obj_has_flag(ptr noundef %8, i32 noundef 6)
  br i1 %9, label %10, label %11

10:                                               ; preds = %7
  store i1 true, ptr %2, align 1
  br label %12

11:                                               ; preds = %7
  store i1 false, ptr %2, align 1
  br label %12

12:                                               ; preds = %11, %10, %6
  %13 = load i1, ptr %2, align 1
  ret i1 %13
}

; Function Attrs: nounwind uwtable
define internal ptr @find_first_focusable(ptr noundef %0) #0 {
  %2 = alloca ptr, align 8
  %3 = alloca ptr, align 8
  %4 = alloca i32, align 4
  %5 = alloca i32, align 4
  %6 = alloca ptr, align 8
  %7 = alloca i32, align 4
  store ptr %0, ptr %3, align 8, !tbaa !3
  call void @llvm.lifetime.start.p0(i64 4, ptr %4) #3
  %8 = load ptr, ptr %3, align 8, !tbaa !3
  %9 = call i32 @lv_obj_get_child_count(ptr noundef %8)
  store i32 %9, ptr %4, align 4, !tbaa !7
  call void @llvm.lifetime.start.p0(i64 4, ptr %5) #3
  store i32 0, ptr %5, align 4, !tbaa !7
  br label %10

10:                                               ; preds = %26, %1
  %11 = load i32, ptr %5, align 4, !tbaa !7
  %12 = load i32, ptr %4, align 4, !tbaa !7
  %13 = icmp ult i32 %11, %12
  br i1 %13, label %14, label %29

14:                                               ; preds = %10
  call void @llvm.lifetime.start.p0(i64 8, ptr %6) #3
  %15 = load ptr, ptr %3, align 8, !tbaa !3
  %16 = load i32, ptr %5, align 4, !tbaa !7
  %17 = call ptr @lv_obj_get_child(ptr noundef %15, i32 noundef %16)
  store ptr %17, ptr %6, align 8, !tbaa !3
  %18 = load ptr, ptr %6, align 8, !tbaa !3
  %19 = call zeroext i1 @obj_is_focusable(ptr noundef %18)
  br i1 %19, label %20, label %22

20:                                               ; preds = %14
  %21 = load ptr, ptr %6, align 8, !tbaa !3
  store ptr %21, ptr %2, align 8
  store i32 1, ptr %7, align 4
  br label %23

22:                                               ; preds = %14
  store i32 0, ptr %7, align 4
  br label %23

23:                                               ; preds = %22, %20
  call void @llvm.lifetime.end.p0(i64 8, ptr %6) #3
  %24 = load i32, ptr %7, align 4
  switch i32 %24, label %30 [
    i32 0, label %25
  ]

25:                                               ; preds = %23
  br label %26

26:                                               ; preds = %25
  %27 = load i32, ptr %5, align 4, !tbaa !7
  %28 = add i32 %27, 1
  store i32 %28, ptr %5, align 4, !tbaa !7
  br label %10, !llvm.loop !15

29:                                               ; preds = %10
  store ptr null, ptr %2, align 8
  store i32 1, ptr %7, align 4
  br label %30

30:                                               ; preds = %29, %23
  call void @llvm.lifetime.end.p0(i64 4, ptr %5) #3
  call void @llvm.lifetime.end.p0(i64 4, ptr %4) #3
  %31 = load ptr, ptr %2, align 8
  ret ptr %31
}