; Function Attrs: nounwind uwtable
define internal fastcc noundef ptr @find_first_focusable(ptr noundef %0) unnamed_addr #0 {
  %2 = tail call i32 @lv_obj_get_child_count(ptr noundef %0) #4
  %.not = icmp eq i32 %2, 0
  br i1 %.not, label %obj_is_focusable.exit._crit_edge, label %.lr.ph

.lr.ph:                                           ; preds = %1, %obj_is_focusable.exit.thread
  %.01014 = phi i32 [ %6, %obj_is_focusable.exit.thread ], [ 0, %1 ]
  %3 = tail call ptr @lv_obj_get_child(ptr noundef %0, i32 noundef %.01014) #4
  %4 = tail call zeroext i1 @lv_obj_has_flag(ptr noundef %3, i32 noundef 1) #4
  br i1 %4, label %obj_is_focusable.exit.thread, label %obj_is_focusable.exit

obj_is_focusable.exit:                            ; preds = %.lr.ph
  %5 = tail call zeroext i1 @lv_obj_has_flag(ptr noundef %3, i32 noundef 6) #4
  br i1 %5, label %obj_is_focusable.exit._crit_edge, label %obj_is_focusable.exit.thread

obj_is_focusable.exit.thread:                     ; preds = %.lr.ph, %obj_is_focusable.exit
  %6 = add nuw i32 %.01014, 1
  %exitcond.not = icmp eq i32 %6, %2
  br i1 %exitcond.not, label %obj_is_focusable.exit._crit_edge, label %.lr.ph, !llvm.loop !13

obj_is_focusable.exit._crit_edge:                 ; preds = %obj_is_focusable.exit.thread, %obj_is_focusable.exit, %1
  %.2 = phi ptr [ null, %1 ], [ %3, %obj_is_focusable.exit ], [ null, %obj_is_focusable.exit.thread ]
  ret ptr %.2
}